Process: WmiPrvSE.exe Pid: 2136 Address: 0x1170000
Vad Tag: VadS Protection: PAGE_EXECUTE_READWRITE
Flags: CommitCharge: 2, PrivateMemory: 1, Protection: 6

0x0000000001170000  00 00 00 00 00 00 00 00 9d 88 3b aa 5a 4c 00 01   ..........;.ZL..
0x0000000001170010  ee ff ee ff 00 00 00 00 28 01 17 01 00 00 00 00   ........(.......
0x0000000001170020  28 01 17 01 00 00 00 00 00 00 17 01 00 00 00 00   (...............
0x0000000001170030  00 00 17 01 00 00 00 00 80 00 00 00 00 00 00 00   ................

0x0000000001170000 0000             ADD [EAX], AL
0x0000000001170002 0000             ADD [EAX], AL
0x0000000001170004 0000             ADD [EAX], AL
0x0000000001170006 0000             ADD [EAX], AL
0x0000000001170008 9d               POPF
0x0000000001170009 883b             MOV [EBX], BH
0x000000000117000b aa               STOSB
0x000000000117000c 5a               POP EDX
0x000000000117000d 4c               DEC ESP
0x000000000117000e 0001             ADD [ECX], AL
0x0000000001170010 ee               OUT DX, AL
0x0000000001170011 ff               DB 0xff
0x0000000001170012 ee               OUT DX, AL
0x0000000001170013 ff00             INC DWORD [EAX]
0x0000000001170015 0000             ADD [EAX], AL
0x0000000001170017 0028             ADD [EAX], CH
0x0000000001170019 0117             ADD [EDI], EDX
0x000000000117001b 0100             ADD [EAX], EAX
0x000000000117001d 0000             ADD [EAX], AL
0x000000000117001f 0028             ADD [EAX], CH
0x0000000001170021 0117             ADD [EDI], EDX
0x0000000001170023 0100             ADD [EAX], EAX
0x0000000001170025 0000             ADD [EAX], AL
0x0000000001170027 0000             ADD [EAX], AL
0x0000000001170029 0017             ADD [EDI], DL
0x000000000117002b 0100             ADD [EAX], EAX
0x000000000117002d 0000             ADD [EAX], AL
0x000000000117002f 0000             ADD [EAX], AL
0x0000000001170031 0017             ADD [EDI], DL
0x0000000001170033 0100             ADD [EAX], EAX
0x0000000001170035 0000             ADD [EAX], AL
0x0000000001170037 008000000000     ADD [EAX+0x0], AL
0x000000000117003d 0000             ADD [EAX], AL
0x000000000117003f 00               DB 0x0

Process: WmiPrvSE.exe Pid: 2136 Address: 0x1850000
Vad Tag: VadS Protection: PAGE_EXECUTE_READWRITE
Flags: CommitCharge: 2, PrivateMemory: 1, Protection: 6

0x0000000001850000  00 00 00 00 00 00 00 00 06 87 bd 8e 5d 19 00 01   ............]...
0x0000000001850010  ee ff ee ff 00 00 00 00 28 01 85 01 00 00 00 00   ........(.......
0x0000000001850020  28 01 85 01 00 00 00 00 00 00 85 01 00 00 00 00   (...............
0x0000000001850030  00 00 85 01 00 00 00 00 80 00 00 00 00 00 00 00   ................

0x0000000001850000 0000             ADD [EAX], AL
0x0000000001850002 0000             ADD [EAX], AL
0x0000000001850004 0000             ADD [EAX], AL
0x0000000001850006 0000             ADD [EAX], AL
0x0000000001850008 06               PUSH ES
0x0000000001850009 87bd8e5d1900     XCHG [EBP+0x195d8e], EDI
0x000000000185000f 01ee             ADD ESI, EBP
0x0000000001850011 ff               DB 0xff
0x0000000001850012 ee               OUT DX, AL
0x0000000001850013 ff00             INC DWORD [EAX]
0x0000000001850015 0000             ADD [EAX], AL
0x0000000001850017 0028             ADD [EAX], CH
0x0000000001850019 018501000000     ADD [EBP+0x1], EAX
0x000000000185001f 0028             ADD [EAX], CH
0x0000000001850021 018501000000     ADD [EBP+0x1], EAX
0x0000000001850027 0000             ADD [EAX], AL
0x0000000001850029 008501000000     ADD [EBP+0x1], AL
0x000000000185002f 0000             ADD [EAX], AL
0x0000000001850031 008501000000     ADD [EBP+0x1], AL
0x0000000001850037 008000000000     ADD [EAX+0x0], AL
0x000000000185003d 0000             ADD [EAX], AL
0x000000000185003f 00               DB 0x0

Process: explorer.exe Pid: 2728 Address: 0x1cb0000
Vad Tag: VadS Protection: PAGE_EXECUTE_READWRITE
Flags: CommitCharge: 16, MemCommit: 1, PrivateMemory: 1, Protection: 6

0x0000000001cb0000  41 ba 80 00 00 00 48 b8 38 a1 9c ff fe 07 00 00   A.....H.8.......
0x0000000001cb0010  48 ff 20 90 41 ba 81 00 00 00 48 b8 38 a1 9c ff   H...A.....H.8...
0x0000000001cb0020  fe 07 00 00 48 ff 20 90 41 ba 82 00 00 00 48 b8   ....H...A.....H.
0x0000000001cb0030  38 a1 9c ff fe 07 00 00 48 ff 20 90 41 ba 83 00   8.......H...A...

0x0000000001cb0000 41               INC ECX
0x0000000001cb0001 ba80000000       MOV EDX, 0x80
0x0000000001cb0006 48               DEC EAX
0x0000000001cb0007 b838a19cff       MOV EAX, 0xff9ca138
0x0000000001cb000c fe07             INC BYTE [EDI]
0x0000000001cb000e 0000             ADD [EAX], AL
0x0000000001cb0010 48               DEC EAX
0x0000000001cb0011 ff20             JMP DWORD [EAX]
0x0000000001cb0013 90               NOP
0x0000000001cb0014 41               INC ECX
0x0000000001cb0015 ba81000000       MOV EDX, 0x81
0x0000000001cb001a 48               DEC EAX
0x0000000001cb001b b838a19cff       MOV EAX, 0xff9ca138
0x0000000001cb0020 fe07             INC BYTE [EDI]
0x0000000001cb0022 0000             ADD [EAX], AL
0x0000000001cb0024 48               DEC EAX
0x0000000001cb0025 ff20             JMP DWORD [EAX]
0x0000000001cb0027 90               NOP
0x0000000001cb0028 41               INC ECX
0x0000000001cb0029 ba82000000       MOV EDX, 0x82
0x0000000001cb002e 48               DEC EAX
0x0000000001cb002f b838a19cff       MOV EAX, 0xff9ca138
0x0000000001cb0034 fe07             INC BYTE [EDI]
0x0000000001cb0036 0000             ADD [EAX], AL
0x0000000001cb0038 48               DEC EAX
0x0000000001cb0039 ff20             JMP DWORD [EAX]
0x0000000001cb003b 90               NOP
0x0000000001cb003c 41               INC ECX
0x0000000001cb003d ba               DB 0xba
0x0000000001cb003e 83               DB 0x83
0x0000000001cb003f 00               DB 0x0

Process: explorer.exe Pid: 2728 Address: 0x3c30000
Vad Tag: VadS Protection: PAGE_EXECUTE_READWRITE
Flags: CommitCharge: 1, MemCommit: 1, PrivateMemory: 1, Protection: 6

0x0000000003c30000  00 00 00 00 00 00 00 00 00 00 00 00 00 00 00 00   ................
0x0000000003c30010  00 00 00 00 00 00 00 00 00 00 00 00 00 00 00 00   ................
0x0000000003c30020  00 00 c3 03 00 00 00 00 00 00 00 00 00 00 00 00   ................
0x0000000003c30030  00 00 00 00 00 00 00 00 00 00 00 00 00 00 00 00   ................

0x0000000003c30000 0000             ADD [EAX], AL
0x0000000003c30002 0000             ADD [EAX], AL
0x0000000003c30004 0000             ADD [EAX], AL
0x0000000003c30006 0000             ADD [EAX], AL
0x0000000003c30008 0000             ADD [EAX], AL
0x0000000003c3000a 0000             ADD [EAX], AL
0x0000000003c3000c 0000             ADD [EAX], AL
0x0000000003c3000e 0000             ADD [EAX], AL
0x0000000003c30010 0000             ADD [EAX], AL
0x0000000003c30012 0000             ADD [EAX], AL
0x0000000003c30014 0000             ADD [EAX], AL
0x0000000003c30016 0000             ADD [EAX], AL
0x0000000003c30018 0000             ADD [EAX], AL
0x0000000003c3001a 0000             ADD [EAX], AL
0x0000000003c3001c 0000             ADD [EAX], AL
0x0000000003c3001e 0000             ADD [EAX], AL
0x0000000003c30020 0000             ADD [EAX], AL
0x0000000003c30022 c3               RET
0x0000000003c30023 0300             ADD EAX, [EAX]
0x0000000003c30025 0000             ADD [EAX], AL
0x0000000003c30027 0000             ADD [EAX], AL
0x0000000003c30029 0000             ADD [EAX], AL
0x0000000003c3002b 0000             ADD [EAX], AL
0x0000000003c3002d 0000             ADD [EAX], AL
0x0000000003c3002f 0000             ADD [EAX], AL
0x0000000003c30031 0000             ADD [EAX], AL
0x0000000003c30033 0000             ADD [EAX], AL
0x0000000003c30035 0000             ADD [EAX], AL
0x0000000003c30037 0000             ADD [EAX], AL
0x0000000003c30039 0000             ADD [EAX], AL
0x0000000003c3003b 0000             ADD [EAX], AL
0x0000000003c3003d 0000             ADD [EAX], AL
0x0000000003c3003f 00               DB 0x0

Process: BitTorrent.exe Pid: 2836 Address: 0x5730000
Vad Tag: VadS Protection: PAGE_EXECUTE_READWRITE
Flags: CommitCharge: 1, MemCommit: 1, PrivateMemory: 1, Protection: 6

0x0000000005730000  00 00 00 00 00 00 00 00 00 00 00 00 00 00 00 00   ................
0x0000000005730010  00 00 73 05 00 00 00 00 00 00 00 00 00 00 00 00   ..s.............
0x0000000005730020  10 00 73 05 00 00 00 00 00 00 00 00 00 00 00 00   ..s.............
0x0000000005730030  20 00 73 05 00 00 00 00 00 00 00 00 00 00 00 00   ..s.............

0x0000000005730000 0000             ADD [EAX], AL
0x0000000005730002 0000             ADD [EAX], AL
0x0000000005730004 0000             ADD [EAX], AL
0x0000000005730006 0000             ADD [EAX], AL
0x0000000005730008 0000             ADD [EAX], AL
0x000000000573000a 0000             ADD [EAX], AL
0x000000000573000c 0000             ADD [EAX], AL
0x000000000573000e 0000             ADD [EAX], AL
0x0000000005730010 0000             ADD [EAX], AL
0x0000000005730012 7305             JAE 0x5730019
0x0000000005730014 0000             ADD [EAX], AL
0x0000000005730016 0000             ADD [EAX], AL
0x0000000005730018 0000             ADD [EAX], AL
0x000000000573001a 0000             ADD [EAX], AL
0x000000000573001c 0000             ADD [EAX], AL
0x000000000573001e 0000             ADD [EAX], AL
0x0000000005730020 1000             ADC [EAX], AL
0x0000000005730022 7305             JAE 0x5730029
0x0000000005730024 0000             ADD [EAX], AL
0x0000000005730026 0000             ADD [EAX], AL
0x0000000005730028 0000             ADD [EAX], AL
0x000000000573002a 0000             ADD [EAX], AL
0x000000000573002c 0000             ADD [EAX], AL
0x000000000573002e 0000             ADD [EAX], AL
0x0000000005730030 2000             AND [EAX], AL
0x0000000005730032 7305             JAE 0x5730039
0x0000000005730034 0000             ADD [EAX], AL
0x0000000005730036 0000             ADD [EAX], AL
0x0000000005730038 0000             ADD [EAX], AL
0x000000000573003a 0000             ADD [EAX], AL
0x000000000573003c 0000             ADD [EAX], AL
0x000000000573003e 0000             ADD [EAX], AL

Process: PresentationFo Pid: 724 Address: 0x5c0000
Vad Tag: VadS Protection: PAGE_EXECUTE_READWRITE
Flags: CommitCharge: 2, PrivateMemory: 1, Protection: 6

0x00000000005c0000  00 00 00 00 00 00 00 00 95 a4 16 c2 d2 96 00 01   ................
0x00000000005c0010  ee ff ee ff 00 00 00 00 28 01 5c 00 00 00 00 00   ........(.\.....
0x00000000005c0020  28 01 5c 00 00 00 00 00 00 00 5c 00 00 00 00 00   (.\.......\.....
0x00000000005c0030  00 00 5c 00 00 00 00 00 80 00 00 00 00 00 00 00   ..\.............

0x00000000005c0000 0000             ADD [EAX], AL
0x00000000005c0002 0000             ADD [EAX], AL
0x00000000005c0004 0000             ADD [EAX], AL
0x00000000005c0006 0000             ADD [EAX], AL
0x00000000005c0008 95               XCHG EBP, EAX
0x00000000005c0009 a4               MOVSB
0x00000000005c000a 16               PUSH SS
0x00000000005c000b c2d296           RET 0x96d2
0x00000000005c000e 0001             ADD [ECX], AL
0x00000000005c0010 ee               OUT DX, AL
0x00000000005c0011 ff               DB 0xff
0x00000000005c0012 ee               OUT DX, AL
0x00000000005c0013 ff00             INC DWORD [EAX]
0x00000000005c0015 0000             ADD [EAX], AL
0x00000000005c0017 0028             ADD [EAX], CH
0x00000000005c0019 015c0000         ADD [EAX+EAX+0x0], EBX
0x00000000005c001d 0000             ADD [EAX], AL
0x00000000005c001f 0028             ADD [EAX], CH
0x00000000005c0021 015c0000         ADD [EAX+EAX+0x0], EBX
0x00000000005c0025 0000             ADD [EAX], AL
0x00000000005c0027 0000             ADD [EAX], AL
0x00000000005c0029 005c0000         ADD [EAX+EAX+0x0], BL
0x00000000005c002d 0000             ADD [EAX], AL
0x00000000005c002f 0000             ADD [EAX], AL
0x00000000005c0031 005c0000         ADD [EAX+EAX+0x0], BL
0x00000000005c0035 0000             ADD [EAX], AL
0x00000000005c0037 008000000000     ADD [EAX+0x0], AL
0x00000000005c003d 0000             ADD [EAX], AL
0x00000000005c003f 00               DB 0x0

Process: PresentationFo Pid: 724 Address: 0xa10000
Vad Tag: VadS Protection: PAGE_EXECUTE_READWRITE
Flags: CommitCharge: 37, PrivateMemory: 1, Protection: 6

0x0000000000a10000  00 00 00 00 00 00 00 00 1f 9a 5b bc e5 93 00 01   ..........[.....
0x0000000000a10010  ee ff ee ff 00 00 00 00 28 01 a1 00 00 00 00 00   ........(.......
0x0000000000a10020  28 01 a1 00 00 00 00 00 00 00 a1 00 00 00 00 00   (...............
0x0000000000a10030  00 00 a1 00 00 00 00 00 80 00 00 00 00 00 00 00   ................

0x0000000000a10000 0000             ADD [EAX], AL
0x0000000000a10002 0000             ADD [EAX], AL
0x0000000000a10004 0000             ADD [EAX], AL
0x0000000000a10006 0000             ADD [EAX], AL
0x0000000000a10008 1f               POP DS
0x0000000000a10009 9a5bbce5930001   CALL FAR 0x100:0x93e5bc5b
0x0000000000a10010 ee               OUT DX, AL
0x0000000000a10011 ff               DB 0xff
0x0000000000a10012 ee               OUT DX, AL
0x0000000000a10013 ff00             INC DWORD [EAX]
0x0000000000a10015 0000             ADD [EAX], AL
0x0000000000a10017 0028             ADD [EAX], CH
0x0000000000a10019 01a100000000     ADD [ECX+0x0], ESP
0x0000000000a1001f 0028             ADD [EAX], CH
0x0000000000a10021 01a100000000     ADD [ECX+0x0], ESP
0x0000000000a10027 0000             ADD [EAX], AL
0x0000000000a10029 00a100000000     ADD [ECX+0x0], AH
0x0000000000a1002f 0000             ADD [EAX], AL
0x0000000000a10031 00a100000000     ADD [ECX+0x0], AH
0x0000000000a10037 008000000000     ADD [EAX+0x0], AL
0x0000000000a1003d 0000             ADD [EAX], AL
0x0000000000a1003f 00               DB 0x0

Process: PresentationFo Pid: 724 Address: 0x7fffff10000
Vad Tag: VadS Protection: PAGE_EXECUTE_READWRITE
Flags: CommitCharge: 1, PrivateMemory: 1, Protection: 6

0x000007fffff10000  00 00 00 00 00 00 00 00 78 0d 00 00 00 00 00 00   ........x.......
0x000007fffff10010  0e 00 00 00 49 c7 c2 00 00 00 00 48 b8 e0 19 14   ....I......H....
0x000007fffff10020  f9 fe 07 00 00 ff e0 49 c7 c2 01 00 00 00 48 b8   .......I......H.
0x000007fffff10030  e0 19 14 f9 fe 07 00 00 ff e0 49 c7 c2 02 00 00   ..........I.....

0x00000000fff10000 0000             ADD [EAX], AL
0x00000000fff10002 0000             ADD [EAX], AL
0x00000000fff10004 0000             ADD [EAX], AL
0x00000000fff10006 0000             ADD [EAX], AL
0x00000000fff10008 780d             JS 0xfff10017
0x00000000fff1000a 0000             ADD [EAX], AL
0x00000000fff1000c 0000             ADD [EAX], AL
0x00000000fff1000e 0000             ADD [EAX], AL
0x00000000fff10010 0e               PUSH CS
0x00000000fff10011 0000             ADD [EAX], AL
0x00000000fff10013 0049c7           ADD [ECX-0x39], CL
0x00000000fff10016 c20000           RET 0x0
0x00000000fff10019 0000             ADD [EAX], AL
0x00000000fff1001b 48               DEC EAX
0x00000000fff1001c b8e01914f9       MOV EAX, 0xf91419e0
0x00000000fff10021 fe07             INC BYTE [EDI]
0x00000000fff10023 0000             ADD [EAX], AL
0x00000000fff10025 ffe0             JMP EAX
0x00000000fff10027 49               DEC ECX
0x00000000fff10028 c7c201000000     MOV EDX, 0x1
0x00000000fff1002e 48               DEC EAX
0x00000000fff1002f b8e01914f9       MOV EAX, 0xf91419e0
0x00000000fff10034 fe07             INC BYTE [EDI]
0x00000000fff10036 0000             ADD [EAX], AL
0x00000000fff10038 ffe0             JMP EAX
0x00000000fff1003a 49               DEC ECX
0x00000000fff1003b c7               DB 0xc7
0x00000000fff1003c c20200           RET 0x2
0x00000000fff1003f 00               DB 0x0

Process: PresentationFo Pid: 724 Address: 0x7fffff20000
Vad Tag: VadS Protection: PAGE_EXECUTE_READWRITE
Flags: CommitCharge: 1, PrivateMemory: 1, Protection: 6

0x000007fffff20000  d8 ff ff ff ff ff ff ff 08 00 00 00 00 00 00 00   ................
0x000007fffff20010  01 00 00 00 00 00 00 00 00 00 08 01 38 00 00 00   ............8...
0x000007fffff20020  15 00 0e 00 0e 00 00 00 f8 73 f3 f7 fe 07 00 00   .........s......
0x000007fffff20030  00 10 b0 f7 fe 07 00 00 a8 ed b3 f7 fe 07 00 00   ................

0x00000000fff20000 d8ff             FDIVR ST0, ST7
0x00000000fff20002 ff               DB 0xff
0x00000000fff20003 ff               DB 0xff
0x00000000fff20004 ff               DB 0xff
0x00000000fff20005 ff               DB 0xff
0x00000000fff20006 ff               DB 0xff
0x00000000fff20007 ff08             DEC DWORD [EAX]
0x00000000fff20009 0000             ADD [EAX], AL
0x00000000fff2000b 0000             ADD [EAX], AL
0x00000000fff2000d 0000             ADD [EAX], AL
0x00000000fff2000f 0001             ADD [ECX], AL
0x00000000fff20011 0000             ADD [EAX], AL
0x00000000fff20013 0000             ADD [EAX], AL
0x00000000fff20015 0000             ADD [EAX], AL
0x00000000fff20017 0000             ADD [EAX], AL
0x00000000fff20019 0008             ADD [EAX], CL
0x00000000fff2001b 0138             ADD [EAX], EDI
0x00000000fff2001d 0000             ADD [EAX], AL
0x00000000fff2001f 0015000e000e     ADD [0xe000e00], DL
0x00000000fff20025 0000             ADD [EAX], AL
0x00000000fff20027 00f8             ADD AL, BH
0x00000000fff20029 73f3             JAE 0xfff2001e
0x00000000fff2002b f7fe             IDIV ESI
0x00000000fff2002d 07               POP ES
0x00000000fff2002e 0000             ADD [EAX], AL
0x00000000fff20030 0010             ADD [EAX], DL
0x00000000fff20032 b0f7             MOV AL, 0xf7
0x00000000fff20034 fe07             INC BYTE [EDI]
0x00000000fff20036 0000             ADD [EAX], AL
0x00000000fff20038 a8ed             TEST AL, 0xed
0x00000000fff2003a b3f7             MOV BL, 0xf7
0x00000000fff2003c fe07             INC BYTE [EDI]
0x00000000fff2003e 0000             ADD [EAX], AL

Process: mscorsvw.exe Pid: 412 Address: 0xba0000
Vad Tag: VadS Protection: PAGE_EXECUTE_READWRITE
Flags: CommitCharge: 1, PrivateMemory: 1, Protection: 6

0x0000000000ba0000  9e 17 1d ae b0 f0 00 01 ee ff ee ff 00 00 00 00   ................
0x0000000000ba0010  a8 00 ba 00 a8 00 ba 00 00 00 ba 00 00 00 ba 00   ................
0x0000000000ba0020  40 00 00 00 88 05 ba 00 00 00 be 00 3f 00 00 00   @...........?...
0x0000000000ba0030  01 00 00 00 00 00 00 00 f0 0f ba 00 f0 0f ba 00   ................

0x0000000000ba0000 9e               SAHF
0x0000000000ba0001 17               POP SS
0x0000000000ba0002 1daeb0f000       SBB EAX, 0xf0b0ae
0x0000000000ba0007 01ee             ADD ESI, EBP
0x0000000000ba0009 ff               DB 0xff
0x0000000000ba000a ee               OUT DX, AL
0x0000000000ba000b ff00             INC DWORD [EAX]
0x0000000000ba000d 0000             ADD [EAX], AL
0x0000000000ba000f 00a800ba00a8     ADD [EAX-0x57ff4600], CH
0x0000000000ba0015 00ba000000ba     ADD [EDX-0x46000000], BH
0x0000000000ba001b 0000             ADD [EAX], AL
0x0000000000ba001d 00ba00400000     ADD [EDX+0x4000], BH
0x0000000000ba0023 008805ba0000     ADD [EAX+0xba05], CL
0x0000000000ba0029 00be003f0000     ADD [ESI+0x3f00], BH
0x0000000000ba002f 0001             ADD [ECX], AL
0x0000000000ba0031 0000             ADD [EAX], AL
0x0000000000ba0033 0000             ADD [EAX], AL
0x0000000000ba0035 0000             ADD [EAX], AL
0x0000000000ba0037 00f0             ADD AL, DH
0x0000000000ba0039 0f               DB 0xf
0x0000000000ba003a ba00f00fba       MOV EDX, 0xba0ff000
0x0000000000ba003f 00               DB 0x0

Process: mscorsvw.exe Pid: 412 Address: 0x16a0000
Vad Tag: VadS Protection: PAGE_EXECUTE_READWRITE
Flags: CommitCharge: 1, PrivateMemory: 1, Protection: 6

0x00000000016a0000  87 79 5b b7 e7 b6 00 01 ee ff ee ff 00 00 00 00   .y[.............
0x00000000016a0010  a8 00 6a 01 a8 00 6a 01 00 00 6a 01 00 00 6a 01   ..j...j...j...j.
0x00000000016a0020  40 00 00 00 88 05 6a 01 00 00 6e 01 3f 00 00 00   @.....j...n.?...
0x00000000016a0030  01 00 00 00 00 00 00 00 f0 0f 6a 01 f0 0f 6a 01   ..........j...j.

0x00000000016a0000 87795b           XCHG [ECX+0x5b], EDI
0x00000000016a0003 b7e7             MOV BH, 0xe7
0x00000000016a0005 b600             MOV DH, 0x0
0x00000000016a0007 01ee             ADD ESI, EBP
0x00000000016a0009 ff               DB 0xff
0x00000000016a000a ee               OUT DX, AL
0x00000000016a000b ff00             INC DWORD [EAX]
0x00000000016a000d 0000             ADD [EAX], AL
0x00000000016a000f 00a8006a01a8     ADD [EAX-0x57fe9600], CH
0x00000000016a0015 006a01           ADD [EDX+0x1], CH
0x00000000016a0018 0000             ADD [EAX], AL
0x00000000016a001a 6a01             PUSH 0x1
0x00000000016a001c 0000             ADD [EAX], AL
0x00000000016a001e 6a01             PUSH 0x1
0x00000000016a0020 40               INC EAX
0x00000000016a0021 0000             ADD [EAX], AL
0x00000000016a0023 0088056a0100     ADD [EAX+0x16a05], CL
0x00000000016a0029 006e01           ADD [ESI+0x1], CH
0x00000000016a002c 3f               AAS
0x00000000016a002d 0000             ADD [EAX], AL
0x00000000016a002f 0001             ADD [ECX], AL
0x00000000016a0031 0000             ADD [EAX], AL
0x00000000016a0033 0000             ADD [EAX], AL
0x00000000016a0035 0000             ADD [EAX], AL
0x00000000016a0037 00f0             ADD AL, DH
0x00000000016a0039 0f6a01           PUNPCKHDQ MM0, [ECX]
0x00000000016a003c f00f6a01         PUNPCKHDQ MM0, [ECX]

Process: mscorsvw.exe Pid: 3124 Address: 0xaf0000
Vad Tag: VadS Protection: PAGE_EXECUTE_READWRITE
Flags: CommitCharge: 2, PrivateMemory: 1, Protection: 6

0x0000000000af0000  00 00 00 00 00 00 00 00 79 38 fd bf bb 0c 00 01   ........y8......
0x0000000000af0010  ee ff ee ff 00 00 00 00 28 01 af 00 00 00 00 00   ........(.......
0x0000000000af0020  28 01 af 00 00 00 00 00 00 00 af 00 00 00 00 00   (...............
0x0000000000af0030  00 00 af 00 00 00 00 00 80 00 00 00 00 00 00 00   ................

0x0000000000af0000 0000             ADD [EAX], AL
0x0000000000af0002 0000             ADD [EAX], AL
0x0000000000af0004 0000             ADD [EAX], AL
0x0000000000af0006 0000             ADD [EAX], AL
0x0000000000af0008 7938             JNS 0xaf0042
0x0000000000af000a fd               STD
0x0000000000af000b bfbb0c0001       MOV EDI, 0x1000cbb
0x0000000000af0010 ee               OUT DX, AL
0x0000000000af0011 ff               DB 0xff
0x0000000000af0012 ee               OUT DX, AL
0x0000000000af0013 ff00             INC DWORD [EAX]
0x0000000000af0015 0000             ADD [EAX], AL
0x0000000000af0017 0028             ADD [EAX], CH
0x0000000000af0019 01af00000000     ADD [EDI+0x0], EBP
0x0000000000af001f 0028             ADD [EAX], CH
0x0000000000af0021 01af00000000     ADD [EDI+0x0], EBP
0x0000000000af0027 0000             ADD [EAX], AL
0x0000000000af0029 00af00000000     ADD [EDI+0x0], CH
0x0000000000af002f 0000             ADD [EAX], AL
0x0000000000af0031 00af00000000     ADD [EDI+0x0], CH
0x0000000000af0037 008000000000     ADD [EAX+0x0], AL
0x0000000000af003d 0000             ADD [EAX], AL
0x0000000000af003f 00               DB 0x0

Process: mscorsvw.exe Pid: 3124 Address: 0x1330000
Vad Tag: VadS Protection: PAGE_EXECUTE_READWRITE
Flags: CommitCharge: 2, PrivateMemory: 1, Protection: 6

0x0000000001330000  00 00 00 00 00 00 00 00 22 0a 9a cc 73 9b 00 01   ........"...s...
0x0000000001330010  ee ff ee ff 00 00 00 00 28 01 33 01 00 00 00 00   ........(.3.....
0x0000000001330020  28 01 33 01 00 00 00 00 00 00 33 01 00 00 00 00   (.3.......3.....
0x0000000001330030  00 00 33 01 00 00 00 00 80 00 00 00 00 00 00 00   ..3.............

0x0000000001330000 0000             ADD [EAX], AL
0x0000000001330002 0000             ADD [EAX], AL
0x0000000001330004 0000             ADD [EAX], AL
0x0000000001330006 0000             ADD [EAX], AL
0x0000000001330008 220a             AND CL, [EDX]
0x000000000133000a 9acc739b0001ee   CALL FAR 0xee01:0x9b73cc
0x0000000001330011 ff               DB 0xff
0x0000000001330012 ee               OUT DX, AL
0x0000000001330013 ff00             INC DWORD [EAX]
0x0000000001330015 0000             ADD [EAX], AL
0x0000000001330017 0028             ADD [EAX], CH
0x0000000001330019 0133             ADD [EBX], ESI
0x000000000133001b 0100             ADD [EAX], EAX
0x000000000133001d 0000             ADD [EAX], AL
0x000000000133001f 0028             ADD [EAX], CH
0x0000000001330021 0133             ADD [EBX], ESI
0x0000000001330023 0100             ADD [EAX], EAX
0x0000000001330025 0000             ADD [EAX], AL
0x0000000001330027 0000             ADD [EAX], AL
0x0000000001330029 0033             ADD [EBX], DH
0x000000000133002b 0100             ADD [EAX], EAX
0x000000000133002d 0000             ADD [EAX], AL
0x000000000133002f 0000             ADD [EAX], AL
0x0000000001330031 0033             ADD [EBX], DH
0x0000000001330033 0100             ADD [EAX], EAX
0x0000000001330035 0000             ADD [EAX], AL
0x0000000001330037 008000000000     ADD [EAX+0x0], AL
0x000000000133003d 0000             ADD [EAX], AL
0x000000000133003f 00               DB 0x0

Process: svchost.exe Pid: 3196 Address: 0x5d0000
Vad Tag: VadS Protection: PAGE_EXECUTE_READWRITE
Flags: CommitCharge: 64, MemCommit: 1, PrivateMemory: 1, Protection: 6

0x00000000005d0000  56 57 53 55 48 83 ec 28 48 8b e9 ff e2 48 83 c4   VWSUH..(H....H..
0x00000000005d0010  28 5d 5b 5f 5e c3 00 00 00 00 00 00 00 00 00 00   (][_^...........
0x00000000005d0020  00 00 00 00 00 00 00 00 00 00 00 00 00 00 00 00   ................
0x00000000005d0030  00 00 00 00 00 00 00 00 00 00 00 00 00 00 00 00   ................

0x00000000005d0000 56               PUSH ESI
0x00000000005d0001 57               PUSH EDI
0x00000000005d0002 53               PUSH EBX
0x00000000005d0003 55               PUSH EBP
0x00000000005d0004 48               DEC EAX
0x00000000005d0005 83ec28           SUB ESP, 0x28
0x00000000005d0008 48               DEC EAX
0x00000000005d0009 8be9             MOV EBP, ECX
0x00000000005d000b ffe2             JMP EDX
0x00000000005d000d 48               DEC EAX
0x00000000005d000e 83c428           ADD ESP, 0x28
0x00000000005d0011 5d               POP EBP
0x00000000005d0012 5b               POP EBX
0x00000000005d0013 5f               POP EDI
0x00000000005d0014 5e               POP ESI
0x00000000005d0015 c3               RET
0x00000000005d0016 0000             ADD [EAX], AL
0x00000000005d0018 0000             ADD [EAX], AL
0x00000000005d001a 0000             ADD [EAX], AL
0x00000000005d001c 0000             ADD [EAX], AL
0x00000000005d001e 0000             ADD [EAX], AL
0x00000000005d0020 0000             ADD [EAX], AL
0x00000000005d0022 0000             ADD [EAX], AL
0x00000000005d0024 0000             ADD [EAX], AL
0x00000000005d0026 0000             ADD [EAX], AL
0x00000000005d0028 0000             ADD [EAX], AL
0x00000000005d002a 0000             ADD [EAX], AL
0x00000000005d002c 0000             ADD [EAX], AL
0x00000000005d002e 0000             ADD [EAX], AL
0x00000000005d0030 0000             ADD [EAX], AL
0x00000000005d0032 0000             ADD [EAX], AL
0x00000000005d0034 0000             ADD [EAX], AL
0x00000000005d0036 0000             ADD [EAX], AL
0x00000000005d0038 0000             ADD [EAX], AL
0x00000000005d003a 0000             ADD [EAX], AL
0x00000000005d003c 0000             ADD [EAX], AL
0x00000000005d003e 0000             ADD [EAX], AL

Process: svchost.exe Pid: 3196 Address: 0x2440000
Vad Tag: VadS Protection: PAGE_EXECUTE_READWRITE
Flags: CommitCharge: 128, MemCommit: 1, PrivateMemory: 1, Protection: 6

0x0000000002440000  20 00 00 00 e0 ff 07 00 0c 00 00 00 01 00 05 00   ................
0x0000000002440010  00 42 00 50 00 30 00 70 00 60 00 00 00 00 00 00   .B.P.0.p.`......
0x0000000002440020  48 8b 45 28 c7 00 00 00 00 00 c7 40 04 00 00 00   H.E(.......@....
0x0000000002440030  00 48 8b 45 28 48 8d 40 08 48 89 c2 48 8b 45 20   .H.E(H.@.H..H.E.

0x0000000002440000 2000             AND [EAX], AL
0x0000000002440002 0000             ADD [EAX], AL
0x0000000002440004 e0ff             LOOPNZ 0x2440005
0x0000000002440006 07               POP ES
0x0000000002440007 000c00           ADD [EAX+EAX], CL
0x000000000244000a 0000             ADD [EAX], AL
0x000000000244000c 0100             ADD [EAX], EAX
0x000000000244000e 0500004200       ADD EAX, 0x420000
0x0000000002440013 50               PUSH EAX
0x0000000002440014 0030             ADD [EAX], DH
0x0000000002440016 007000           ADD [EAX+0x0], DH
0x0000000002440019 60               PUSHA
0x000000000244001a 0000             ADD [EAX], AL
0x000000000244001c 0000             ADD [EAX], AL
0x000000000244001e 0000             ADD [EAX], AL
0x0000000002440020 48               DEC EAX
0x0000000002440021 8b4528           MOV EAX, [EBP+0x28]
0x0000000002440024 c70000000000     MOV DWORD [EAX], 0x0
0x000000000244002a c7400400000000   MOV DWORD [EAX+0x4], 0x0
0x0000000002440031 48               DEC EAX
0x0000000002440032 8b4528           MOV EAX, [EBP+0x28]
0x0000000002440035 48               DEC EAX
0x0000000002440036 8d4008           LEA EAX, [EAX+0x8]
0x0000000002440039 48               DEC EAX
0x000000000244003a 89c2             MOV EDX, EAX
0x000000000244003c 48               DEC EAX
0x000000000244003d 8b4520           MOV EAX, [EBP+0x20]

Process: svchost.exe Pid: 3196 Address: 0x4ce0000
Vad Tag: VadS Protection: PAGE_EXECUTE_READWRITE
Flags: CommitCharge: 256, MemCommit: 1, PrivateMemory: 1, Protection: 6

0x0000000004ce0000  20 00 00 00 e0 ff 0f 00 0c 00 00 00 01 00 05 00   ................
0x0000000004ce0010  00 42 00 50 00 30 00 70 00 60 00 00 00 00 00 00   .B.P.0.p.`......
0x0000000004ce0020  ba fc ff ff ff 03 55 20 03 55 5c b9 04 00 1a 00   ......U..U\.....
0x0000000004ce0030  4c 8b c5 ff 95 e0 37 00 00 8b 4d 24 89 08 48 8d   L.....7...M$..H.

0x0000000004ce0000 2000             AND [EAX], AL
0x0000000004ce0002 0000             ADD [EAX], AL
0x0000000004ce0004 e0ff             LOOPNZ 0x4ce0005
0x0000000004ce0006 0f000c00         STR WORD [EAX+EAX]
0x0000000004ce000a 0000             ADD [EAX], AL
0x0000000004ce000c 0100             ADD [EAX], EAX
0x0000000004ce000e 0500004200       ADD EAX, 0x420000
0x0000000004ce0013 50               PUSH EAX
0x0000000004ce0014 0030             ADD [EAX], DH
0x0000000004ce0016 007000           ADD [EAX+0x0], DH
0x0000000004ce0019 60               PUSHA
0x0000000004ce001a 0000             ADD [EAX], AL
0x0000000004ce001c 0000             ADD [EAX], AL
0x0000000004ce001e 0000             ADD [EAX], AL
0x0000000004ce0020 bafcffffff       MOV EDX, 0xfffffffc
0x0000000004ce0025 035520           ADD EDX, [EBP+0x20]
0x0000000004ce0028 03555c           ADD EDX, [EBP+0x5c]
0x0000000004ce002b b904001a00       MOV ECX, 0x1a0004
0x0000000004ce0030 4c               DEC ESP
0x0000000004ce0031 8bc5             MOV EAX, EBP
0x0000000004ce0033 ff95e0370000     CALL DWORD [EBP+0x37e0]
0x0000000004ce0039 8b4d24           MOV ECX, [EBP+0x24]
0x0000000004ce003c 8908             MOV [EAX], ECX
0x0000000004ce003e 48               DEC EAX
0x0000000004ce003f 8d               DB 0x8d

Process: svchost.exe Pid: 3196 Address: 0x4de0000
Vad Tag: VadS Protection: PAGE_EXECUTE_READWRITE
Flags: CommitCharge: 256, MemCommit: 1, PrivateMemory: 1, Protection: 6

0x0000000004de0000  00 00 00 00 00 00 00 00 00 00 00 00 00 00 00 00   ................
0x0000000004de0010  00 00 00 00 00 00 00 00 00 00 00 00 00 00 00 00   ................
0x0000000004de0020  00 00 00 00 00 00 00 00 00 00 00 00 00 00 00 00   ................
0x0000000004de0030  00 00 00 00 00 00 00 00 00 00 00 00 00 00 00 00   ................

0x0000000004de0000 0000             ADD [EAX], AL
0x0000000004de0002 0000             ADD [EAX], AL
0x0000000004de0004 0000             ADD [EAX], AL
0x0000000004de0006 0000             ADD [EAX], AL
0x0000000004de0008 0000             ADD [EAX], AL
0x0000000004de000a 0000             ADD [EAX], AL
0x0000000004de000c 0000             ADD [EAX], AL
0x0000000004de000e 0000             ADD [EAX], AL
0x0000000004de0010 0000             ADD [EAX], AL
0x0000000004de0012 0000             ADD [EAX], AL
0x0000000004de0014 0000             ADD [EAX], AL
0x0000000004de0016 0000             ADD [EAX], AL
0x0000000004de0018 0000             ADD [EAX], AL
0x0000000004de001a 0000             ADD [EAX], AL
0x0000000004de001c 0000             ADD [EAX], AL
0x0000000004de001e 0000             ADD [EAX], AL
0x0000000004de0020 0000             ADD [EAX], AL
0x0000000004de0022 0000             ADD [EAX], AL
0x0000000004de0024 0000             ADD [EAX], AL
0x0000000004de0026 0000             ADD [EAX], AL
0x0000000004de0028 0000             ADD [EAX], AL
0x0000000004de002a 0000             ADD [EAX], AL
0x0000000004de002c 0000             ADD [EAX], AL
0x0000000004de002e 0000             ADD [EAX], AL
0x0000000004de0030 0000             ADD [EAX], AL
0x0000000004de0032 0000             ADD [EAX], AL
0x0000000004de0034 0000             ADD [EAX], AL
0x0000000004de0036 0000             ADD [EAX], AL
0x0000000004de0038 0000             ADD [EAX], AL
0x0000000004de003a 0000             ADD [EAX], AL
0x0000000004de003c 0000             ADD [EAX], AL
0x0000000004de003e 0000             ADD [EAX], AL

Process: chrome.exe Pid: 4076 Address: 0x47d0000
Vad Tag: VadS Protection: PAGE_EXECUTE_READWRITE
Flags: CommitCharge: 1, MemCommit: 1, PrivateMemory: 1, Protection: 6

0x00000000047d0000  00 00 00 00 00 00 00 00 00 00 00 00 00 00 00 00   ................
0x00000000047d0010  00 00 00 00 00 00 00 00 00 00 00 00 00 00 00 00   ................
0x00000000047d0020  00 00 7d 04 00 00 00 00 00 00 00 00 00 00 00 00   ..}.............
0x00000000047d0030  00 00 00 00 00 00 00 00 00 00 00 00 00 00 00 00   ................

0x00000000047d0000 0000             ADD [EAX], AL
0x00000000047d0002 0000             ADD [EAX], AL
0x00000000047d0004 0000             ADD [EAX], AL
0x00000000047d0006 0000             ADD [EAX], AL
0x00000000047d0008 0000             ADD [EAX], AL
0x00000000047d000a 0000             ADD [EAX], AL
0x00000000047d000c 0000             ADD [EAX], AL
0x00000000047d000e 0000             ADD [EAX], AL
0x00000000047d0010 0000             ADD [EAX], AL
0x00000000047d0012 0000             ADD [EAX], AL
0x00000000047d0014 0000             ADD [EAX], AL
0x00000000047d0016 0000             ADD [EAX], AL
0x00000000047d0018 0000             ADD [EAX], AL
0x00000000047d001a 0000             ADD [EAX], AL
0x00000000047d001c 0000             ADD [EAX], AL
0x00000000047d001e 0000             ADD [EAX], AL
0x00000000047d0020 0000             ADD [EAX], AL
0x00000000047d0022 7d04             JGE 0x47d0028
0x00000000047d0024 0000             ADD [EAX], AL
0x00000000047d0026 0000             ADD [EAX], AL
0x00000000047d0028 0000             ADD [EAX], AL
0x00000000047d002a 0000             ADD [EAX], AL
0x00000000047d002c 0000             ADD [EAX], AL
0x00000000047d002e 0000             ADD [EAX], AL
0x00000000047d0030 0000             ADD [EAX], AL
0x00000000047d0032 0000             ADD [EAX], AL
0x00000000047d0034 0000             ADD [EAX], AL
0x00000000047d0036 0000             ADD [EAX], AL
0x00000000047d0038 0000             ADD [EAX], AL
0x00000000047d003a 0000             ADD [EAX], AL
0x00000000047d003c 0000             ADD [EAX], AL
0x00000000047d003e 0000             ADD [EAX], AL

Process: vmware-tray.ex Pid: 3720 Address: 0x670000
Vad Tag: VadS Protection: PAGE_EXECUTE_READWRITE
Flags: CommitCharge: 1, PrivateMemory: 1, Protection: 6

0x0000000000670000  9c 4c 5b ae 8c 8a 00 01 ee ff ee ff 00 00 00 00   .L[.............
0x0000000000670010  a8 00 67 00 a8 00 67 00 00 00 67 00 00 00 67 00   ..g...g...g...g.
0x0000000000670020  40 00 00 00 88 05 67 00 00 00 6b 00 3f 00 00 00   @.....g...k.?...
0x0000000000670030  01 00 00 00 00 00 00 00 f0 0f 67 00 f0 0f 67 00   ..........g...g.

0x0000000000670000 9c               PUSHF
0x0000000000670001 4c               DEC ESP
0x0000000000670002 5b               POP EBX
0x0000000000670003 ae               SCASB
0x0000000000670004 8c8a0001eeff     MOV [EDX-0x11ff00], CS
0x000000000067000a ee               OUT DX, AL
0x000000000067000b ff00             INC DWORD [EAX]
0x000000000067000d 0000             ADD [EAX], AL
0x000000000067000f 00a8006700a8     ADD [EAX-0x57ff9900], CH
0x0000000000670015 006700           ADD [EDI+0x0], AH
0x0000000000670018 0000             ADD [EAX], AL
0x000000000067001a 670000           ADD [BX+SI], AL
0x000000000067001d 006700           ADD [EDI+0x0], AH
0x0000000000670020 40               INC EAX
0x0000000000670021 0000             ADD [EAX], AL
0x0000000000670023 008805670000     ADD [EAX+0x6705], CL
0x0000000000670029 006b00           ADD [EBX+0x0], CH
0x000000000067002c 3f               AAS
0x000000000067002d 0000             ADD [EAX], AL
0x000000000067002f 0001             ADD [ECX], AL
0x0000000000670031 0000             ADD [EAX], AL
0x0000000000670033 0000             ADD [EAX], AL
0x0000000000670035 0000             ADD [EAX], AL
0x0000000000670037 00f0             ADD AL, DH
0x0000000000670039 0f6700           PACKUSWB MM0, [EAX]
0x000000000067003c f00f6700         PACKUSWB MM0, [EAX]

Process: vmware-tray.ex Pid: 3720 Address: 0x510000
Vad Tag: VadS Protection: PAGE_EXECUTE_READWRITE
Flags: CommitCharge: 23, PrivateMemory: 1, Protection: 6

0x0000000000510000  f0 26 16 8e 6a 2f 00 01 ee ff ee ff 00 00 00 00   .&..j/..........
0x0000000000510010  a8 00 51 00 a8 00 51 00 00 00 51 00 00 00 51 00   ..Q...Q...Q...Q.
0x0000000000510020  40 00 00 00 88 05 51 00 00 00 55 00 29 00 00 00   @.....Q...U.)...
0x0000000000510030  01 00 00 00 00 00 00 00 f0 6f 52 00 f0 6f 52 00   .........oR..oR.

0x0000000000510000 f02616           PUSH SS
0x0000000000510003 8e6a2f           MOV GS, [EDX+0x2f]
0x0000000000510006 0001             ADD [ECX], AL
0x0000000000510008 ee               OUT DX, AL
0x0000000000510009 ff               DB 0xff
0x000000000051000a ee               OUT DX, AL
0x000000000051000b ff00             INC DWORD [EAX]
0x000000000051000d 0000             ADD [EAX], AL
0x000000000051000f 00a8005100a8     ADD [EAX-0x57ffaf00], CH
0x0000000000510015 005100           ADD [ECX+0x0], DL
0x0000000000510018 0000             ADD [EAX], AL
0x000000000051001a 51               PUSH ECX
0x000000000051001b 0000             ADD [EAX], AL
0x000000000051001d 005100           ADD [ECX+0x0], DL
0x0000000000510020 40               INC EAX
0x0000000000510021 0000             ADD [EAX], AL
0x0000000000510023 008805510000     ADD [EAX+0x5105], CL
0x0000000000510029 005500           ADD [EBP+0x0], DL
0x000000000051002c 2900             SUB [EAX], EAX
0x000000000051002e 0000             ADD [EAX], AL
0x0000000000510030 0100             ADD [EAX], EAX
0x0000000000510032 0000             ADD [EAX], AL
0x0000000000510034 0000             ADD [EAX], AL
0x0000000000510036 0000             ADD [EAX], AL
0x0000000000510038 f06f             OUTS DX, DWORD [ESI]
0x000000000051003a 52               PUSH EDX
0x000000000051003b 00f0             ADD AL, DH
0x000000000051003d 6f               OUTS DX, DWORD [ESI]
0x000000000051003e 52               PUSH EDX
0x000000000051003f 00               DB 0x0

Process: vmware-tray.ex Pid: 3720 Address: 0xc00000
Vad Tag: VadS Protection: PAGE_EXECUTE_READWRITE
Flags: CommitCharge: 1, PrivateMemory: 1, Protection: 6

0x0000000000c00000  33 d2 3c f0 3c cf 00 01 ee ff ee ff 00 00 00 00   3.<.<...........
0x0000000000c00010  a8 00 c0 00 a8 00 c0 00 00 00 c0 00 00 00 c0 00   ................
0x0000000000c00020  40 00 00 00 88 05 c0 00 00 00 c4 00 3f 00 00 00   @...........?...
0x0000000000c00030  01 00 00 00 00 00 00 00 f0 0f c0 00 f0 0f c0 00   ................

0x0000000000c00000 33d2             XOR EDX, EDX
0x0000000000c00002 3cf0             CMP AL, 0xf0
0x0000000000c00004 3ccf             CMP AL, 0xcf
0x0000000000c00006 0001             ADD [ECX], AL
0x0000000000c00008 ee               OUT DX, AL
0x0000000000c00009 ff               DB 0xff
0x0000000000c0000a ee               OUT DX, AL
0x0000000000c0000b ff00             INC DWORD [EAX]
0x0000000000c0000d 0000             ADD [EAX], AL
0x0000000000c0000f 00a800c000a8     ADD [EAX-0x57ff4000], CH
0x0000000000c00015 00c0             ADD AL, AL
0x0000000000c00017 0000             ADD [EAX], AL
0x0000000000c00019 00c0             ADD AL, AL
0x0000000000c0001b 0000             ADD [EAX], AL
0x0000000000c0001d 00c0             ADD AL, AL
0x0000000000c0001f 004000           ADD [EAX+0x0], AL
0x0000000000c00022 0000             ADD [EAX], AL
0x0000000000c00024 8805c0000000     MOV [0xc0], AL
0x0000000000c0002a c400             LES EAX, [EAX]
0x0000000000c0002c 3f               AAS
0x0000000000c0002d 0000             ADD [EAX], AL
0x0000000000c0002f 0001             ADD [ECX], AL
0x0000000000c00031 0000             ADD [EAX], AL
0x0000000000c00033 0000             ADD [EAX], AL
0x0000000000c00035 0000             ADD [EAX], AL
0x0000000000c00037 00f0             ADD AL, DH
0x0000000000c00039 0fc000           XADD [EAX], AL
0x0000000000c0003c f00fc000         LOCK XADD [EAX], AL

Process: vmware-tray.ex Pid: 3720 Address: 0xa10000
Vad Tag: VadS Protection: PAGE_EXECUTE_READWRITE
Flags: CommitCharge: 1, PrivateMemory: 1, Protection: 6

0x0000000000a10000  12 d2 1f 89 e6 fd 00 01 ee ff ee ff 00 00 00 00   ................
0x0000000000a10010  a8 00 a1 00 a8 00 a1 00 00 00 a1 00 00 00 a1 00   ................
0x0000000000a10020  40 00 00 00 88 05 a1 00 00 00 a5 00 3f 00 00 00   @...........?...
0x0000000000a10030  01 00 00 00 00 00 00 00 f0 0f a1 00 f0 0f a1 00   ................

0x0000000000a10000 12d2             ADC DL, DL
0x0000000000a10002 1f               POP DS
0x0000000000a10003 89e6             MOV ESI, ESP
0x0000000000a10005 fd               STD
0x0000000000a10006 0001             ADD [ECX], AL
0x0000000000a10008 ee               OUT DX, AL
0x0000000000a10009 ff               DB 0xff
0x0000000000a1000a ee               OUT DX, AL
0x0000000000a1000b ff00             INC DWORD [EAX]
0x0000000000a1000d 0000             ADD [EAX], AL
0x0000000000a1000f 00a800a100a8     ADD [EAX-0x57ff5f00], CH
0x0000000000a10015 00a1000000a1     ADD [ECX-0x5f000000], AH
0x0000000000a1001b 0000             ADD [EAX], AL
0x0000000000a1001d 00a100400000     ADD [ECX+0x4000], AH
0x0000000000a10023 008805a10000     ADD [EAX+0xa105], CL
0x0000000000a10029 00a5003f0000     ADD [EBP+0x3f00], AH
0x0000000000a1002f 0001             ADD [ECX], AL
0x0000000000a10031 0000             ADD [EAX], AL
0x0000000000a10033 0000             ADD [EAX], AL
0x0000000000a10035 0000             ADD [EAX], AL
0x0000000000a10037 00f0             ADD AL, DH
0x0000000000a10039 0fa1             POP FS
0x0000000000a1003b 00f0             ADD AL, DH
0x0000000000a1003d 0fa1             POP FS
0x0000000000a1003f 00               DB 0x0

Process: WebCompanionIn Pid: 3880 Address: 0x1a0000
Vad Tag: VadS Protection: PAGE_EXECUTE_READWRITE
Flags: CommitCharge: 1, PrivateMemory: 1, Protection: 6

0x00000000001a0000  1e 31 9d e7 c5 1d 00 01 ee ff ee ff 00 00 00 00   .1..............
0x00000000001a0010  a8 00 1a 00 a8 00 1a 00 00 00 1a 00 00 00 1a 00   ................
0x00000000001a0020  40 00 00 00 88 05 1a 00 00 00 1e 00 3f 00 00 00   @...........?...
0x00000000001a0030  01 00 00 00 00 00 00 00 f0 0f 1a 00 f0 0f 1a 00   ................

0x00000000001a0000 1e               PUSH DS
0x00000000001a0001 319de7c51d00     XOR [EBP+0x1dc5e7], EBX
0x00000000001a0007 01ee             ADD ESI, EBP
0x00000000001a0009 ff               DB 0xff
0x00000000001a000a ee               OUT DX, AL
0x00000000001a000b ff00             INC DWORD [EAX]
0x00000000001a000d 0000             ADD [EAX], AL
0x00000000001a000f 00a8001a00a8     ADD [EAX-0x57ffe600], CH
0x00000000001a0015 001a             ADD [EDX], BL
0x00000000001a0017 0000             ADD [EAX], AL
0x00000000001a0019 001a             ADD [EDX], BL
0x00000000001a001b 0000             ADD [EAX], AL
0x00000000001a001d 001a             ADD [EDX], BL
0x00000000001a001f 004000           ADD [EAX+0x0], AL
0x00000000001a0022 0000             ADD [EAX], AL
0x00000000001a0024 88051a000000     MOV [0x1a], AL
0x00000000001a002a 1e               PUSH DS
0x00000000001a002b 003f             ADD [EDI], BH
0x00000000001a002d 0000             ADD [EAX], AL
0x00000000001a002f 0001             ADD [ECX], AL
0x00000000001a0031 0000             ADD [EAX], AL
0x00000000001a0033 0000             ADD [EAX], AL
0x00000000001a0035 0000             ADD [EAX], AL
0x00000000001a0037 00f0             ADD AL, DH
0x00000000001a0039 0f               DB 0xf
0x00000000001a003a 1a00             SBB AL, [EAX]
0x00000000001a003c f0               DB 0xf0
0x00000000001a003d 0f               DB 0xf
0x00000000001a003e 1a00             SBB AL, [EAX]

Process: WebCompanionIn Pid: 3880 Address: 0x7c0000
Vad Tag: VadS Protection: PAGE_EXECUTE_READWRITE
Flags: CommitCharge: 1, PrivateMemory: 1, Protection: 6

0x00000000007c0000  78 a5 7c 82 a4 72 00 01 ee ff ee ff 00 00 00 00   x.|..r..........
0x00000000007c0010  a8 00 7c 00 a8 00 7c 00 00 00 7c 00 00 00 7c 00   ..|...|...|...|.
0x00000000007c0020  40 00 00 00 88 05 7c 00 00 00 80 00 3f 00 00 00   @.....|.....?...
0x00000000007c0030  01 00 00 00 00 00 00 00 f0 0f 7c 00 f0 0f 7c 00   ..........|...|.

0x00000000007c0000 78a5             JS 0x7bffa7
0x00000000007c0002 7c82             JL 0x7bff86
0x00000000007c0004 a4               MOVSB
0x00000000007c0005 7200             JB 0x7c0007
0x00000000007c0007 01ee             ADD ESI, EBP
0x00000000007c0009 ff               DB 0xff
0x00000000007c000a ee               OUT DX, AL
0x00000000007c000b ff00             INC DWORD [EAX]
0x00000000007c000d 0000             ADD [EAX], AL
0x00000000007c000f 00a8007c00a8     ADD [EAX-0x57ff8400], CH
0x00000000007c0015 007c0000         ADD [EAX+EAX+0x0], BH
0x00000000007c0019 007c0000         ADD [EAX+EAX+0x0], BH
0x00000000007c001d 007c0040         ADD [EAX+EAX+0x40], BH
0x00000000007c0021 0000             ADD [EAX], AL
0x00000000007c0023 0088057c0000     ADD [EAX+0x7c05], CL
0x00000000007c0029 0080003f0000     ADD [EAX+0x3f00], AL
0x00000000007c002f 0001             ADD [ECX], AL
0x00000000007c0031 0000             ADD [EAX], AL
0x00000000007c0033 0000             ADD [EAX], AL
0x00000000007c0035 0000             ADD [EAX], AL
0x00000000007c0037 00f0             ADD AL, DH
0x00000000007c0039 0f               DB 0xf
0x00000000007c003a 7c00             JL 0x7c003c
0x00000000007c003c f0               DB 0xf0
0x00000000007c003d 0f               DB 0xf
0x00000000007c003e 7c00             JL 0x7c0040

Process: WebCompanionIn Pid: 3880 Address: 0x7ef40000
Vad Tag: VadS Protection: PAGE_EXECUTE_READWRITE
Flags: CommitCharge: 1, PrivateMemory: 1, Protection: 6

0x000000007ef40000  ec ff ff ff 04 00 00 00 01 00 00 00 00 00 08 01   ................
0x000000007ef40010  1c 00 00 00 15 00 0e 00 0e 00 00 00 8c 07 24 73   ..............$s
0x000000007ef40020  00 10 fd 72 5c 70 ff 72 2c 30 fd 72 00 00 00 00   ...r\p.r,0.r....
0x000000007ef40030  00 00 00 00 10 00 f3 7e 1a 00 f3 7e 24 00 f3 7e   .......~...~$..~

0x000000007ef40000 ec               IN AL, DX
0x000000007ef40001 ff               DB 0xff
0x000000007ef40002 ff               DB 0xff
0x000000007ef40003 ff0400           INC DWORD [EAX+EAX]
0x000000007ef40006 0000             ADD [EAX], AL
0x000000007ef40008 0100             ADD [EAX], EAX
0x000000007ef4000a 0000             ADD [EAX], AL
0x000000007ef4000c 0000             ADD [EAX], AL
0x000000007ef4000e 0801             OR [ECX], AL
0x000000007ef40010 1c00             SBB AL, 0x0
0x000000007ef40012 0000             ADD [EAX], AL
0x000000007ef40014 15000e000e       ADC EAX, 0xe000e00
0x000000007ef40019 0000             ADD [EAX], AL
0x000000007ef4001b 008c0724730010   ADD [EDI+EAX+0x10007324], CL
0x000000007ef40022 fd               STD
0x000000007ef40023 725c             JB 0x7ef40081
0x000000007ef40025 70ff             JO 0x7ef40026
0x000000007ef40027 722c             JB 0x7ef40055
0x000000007ef40029 30fd             XOR CH, BH
0x000000007ef4002b 7200             JB 0x7ef4002d
0x000000007ef4002d 0000             ADD [EAX], AL
0x000000007ef4002f 0000             ADD [EAX], AL
0x000000007ef40031 0000             ADD [EAX], AL
0x000000007ef40033 0010             ADD [EAX], DL
0x000000007ef40035 00f3             ADD BL, DH
0x000000007ef40037 7e1a             JLE 0x7ef40053
0x000000007ef40039 00f3             ADD BL, DH
0x000000007ef4003b 7e24             JLE 0x7ef40061
0x000000007ef4003d 00f3             ADD BL, DH
0x000000007ef4003f 7e               DB 0x7e

Process: WebCompanionIn Pid: 3880 Address: 0x7ef30000
Vad Tag: VadS Protection: PAGE_EXECUTE_READWRITE
Flags: CommitCharge: 1, PrivateMemory: 1, Protection: 6

0x000000007ef30000  00 00 00 00 97 19 00 00 00 00 00 00 0e 00 00 00   ................
0x000000007ef30010  68 00 00 00 00 e9 4a 09 89 81 68 01 00 00 00 e9   h.....J...h.....
0x000000007ef30020  40 09 89 81 68 02 00 00 00 e9 36 09 89 81 68 03   @...h.....6...h.
0x000000007ef30030  00 00 00 e9 2c 09 89 81 68 04 00 00 00 e9 22 09   ....,...h.....".

0x000000007ef30000 0000             ADD [EAX], AL
0x000000007ef30002 0000             ADD [EAX], AL
0x000000007ef30004 97               XCHG EDI, EAX
0x000000007ef30005 1900             SBB [EAX], EAX
0x000000007ef30007 0000             ADD [EAX], AL
0x000000007ef30009 0000             ADD [EAX], AL
0x000000007ef3000b 000e             ADD [ESI], CL
0x000000007ef3000d 0000             ADD [EAX], AL
0x000000007ef3000f 006800           ADD [EAX+0x0], CH
0x000000007ef30012 0000             ADD [EAX], AL
0x000000007ef30014 00e9             ADD CL, CH
0x000000007ef30016 4a               DEC EDX
0x000000007ef30017 098981680100     OR [ECX+0x16881], ECX
0x000000007ef3001d 0000             ADD [EAX], AL
0x000000007ef3001f e940098981       JMP 0x7c0964
0x000000007ef30024 6802000000       PUSH DWORD 0x2
0x000000007ef30029 e936098981       JMP 0x7c0964
0x000000007ef3002e 6803000000       PUSH DWORD 0x3
0x000000007ef30033 e92c098981       JMP 0x7c0964
0x000000007ef30038 6804000000       PUSH DWORD 0x4
0x000000007ef3003d e9               DB 0xe9
0x000000007ef3003e 2209             AND CL, [ECX]

Process: Lavasoft.WCAss Pid: 3496 Address: 0x580000
Vad Tag: VadS Protection: PAGE_EXECUTE_READWRITE
Flags: CommitCharge: 2, PrivateMemory: 1, Protection: 6

0x0000000000580000  00 00 00 00 00 00 00 00 50 d6 10 d6 57 0e 00 01   ........P...W...
0x0000000000580010  ee ff ee ff 00 00 00 00 28 01 58 00 00 00 00 00   ........(.X.....
0x0000000000580020  28 01 58 00 00 00 00 00 00 00 58 00 00 00 00 00   (.X.......X.....
0x0000000000580030  00 00 58 00 00 00 00 00 80 00 00 00 00 00 00 00   ..X.............

0x0000000000580000 0000             ADD [EAX], AL
0x0000000000580002 0000             ADD [EAX], AL
0x0000000000580004 0000             ADD [EAX], AL
0x0000000000580006 0000             ADD [EAX], AL
0x0000000000580008 50               PUSH EAX
0x0000000000580009 d6               SALC
0x000000000058000a 10d6             ADC DH, DL
0x000000000058000c 57               PUSH EDI
0x000000000058000d 0e               PUSH CS
0x000000000058000e 0001             ADD [ECX], AL
0x0000000000580010 ee               OUT DX, AL
0x0000000000580011 ff               DB 0xff
0x0000000000580012 ee               OUT DX, AL
0x0000000000580013 ff00             INC DWORD [EAX]
0x0000000000580015 0000             ADD [EAX], AL
0x0000000000580017 0028             ADD [EAX], CH
0x0000000000580019 015800           ADD [EAX+0x0], EBX
0x000000000058001c 0000             ADD [EAX], AL
0x000000000058001e 0000             ADD [EAX], AL
0x0000000000580020 2801             SUB [ECX], AL
0x0000000000580022 58               POP EAX
0x0000000000580023 0000             ADD [EAX], AL
0x0000000000580025 0000             ADD [EAX], AL
0x0000000000580027 0000             ADD [EAX], AL
0x0000000000580029 005800           ADD [EAX+0x0], BL
0x000000000058002c 0000             ADD [EAX], AL
0x000000000058002e 0000             ADD [EAX], AL
0x0000000000580030 0000             ADD [EAX], AL
0x0000000000580032 58               POP EAX
0x0000000000580033 0000             ADD [EAX], AL
0x0000000000580035 0000             ADD [EAX], AL
0x0000000000580037 008000000000     ADD [EAX+0x0], AL
0x000000000058003d 0000             ADD [EAX], AL
0x000000000058003f 00               DB 0x0

Process: Lavasoft.WCAss Pid: 3496 Address: 0x660000
Vad Tag: VadS Protection: PAGE_EXECUTE_READWRITE
Flags: CommitCharge: 50, PrivateMemory: 1, Protection: 6

0x0000000000660000  00 00 00 00 00 00 00 00 aa 32 b3 a9 8f 81 00 01   .........2......
0x0000000000660010  ee ff ee ff 00 00 00 00 28 01 66 00 00 00 00 00   ........(.f.....
0x0000000000660020  28 01 66 00 00 00 00 00 00 00 66 00 00 00 00 00   (.f.......f.....
0x0000000000660030  00 00 66 00 00 00 00 00 80 00 00 00 00 00 00 00   ..f.............

0x0000000000660000 0000             ADD [EAX], AL
0x0000000000660002 0000             ADD [EAX], AL
0x0000000000660004 0000             ADD [EAX], AL
0x0000000000660006 0000             ADD [EAX], AL
0x0000000000660008 aa               STOSB
0x0000000000660009 32b3a98f8100     XOR DH, [EBX+0x818fa9]
0x000000000066000f 01ee             ADD ESI, EBP
0x0000000000660011 ff               DB 0xff
0x0000000000660012 ee               OUT DX, AL
0x0000000000660013 ff00             INC DWORD [EAX]
0x0000000000660015 0000             ADD [EAX], AL
0x0000000000660017 0028             ADD [EAX], CH
0x0000000000660019 016600           ADD [ESI+0x0], ESP
0x000000000066001c 0000             ADD [EAX], AL
0x000000000066001e 0000             ADD [EAX], AL
0x0000000000660020 2801             SUB [ECX], AL
0x0000000000660022 660000           ADD [EAX], AL
0x0000000000660025 0000             ADD [EAX], AL
0x0000000000660027 0000             ADD [EAX], AL
0x0000000000660029 006600           ADD [ESI+0x0], AH
0x000000000066002c 0000             ADD [EAX], AL
0x000000000066002e 0000             ADD [EAX], AL
0x0000000000660030 0000             ADD [EAX], AL
0x0000000000660032 660000           ADD [EAX], AL
0x0000000000660035 0000             ADD [EAX], AL
0x0000000000660037 008000000000     ADD [EAX+0x0], AL
0x000000000066003d 0000             ADD [EAX], AL
0x000000000066003f 00               DB 0x0

Process: Lavasoft.WCAss Pid: 3496 Address: 0x7fffff10000
Vad Tag: VadS Protection: PAGE_EXECUTE_READWRITE
Flags: CommitCharge: 1, PrivateMemory: 1, Protection: 6

0x000007fffff10000  d8 ff ff ff ff ff ff ff 08 00 00 00 00 00 00 00   ................
0x000007fffff10010  01 00 00 00 00 00 00 00 00 00 08 01 38 00 00 00   ............8...
0x000007fffff10020  15 00 0e 00 0e 00 00 00 f8 73 f3 f7 fe 07 00 00   .........s......
0x000007fffff10030  00 10 b0 f7 fe 07 00 00 a8 ed b3 f7 fe 07 00 00   ................

0x00000000fff10000 d8ff             FDIVR ST0, ST7
0x00000000fff10002 ff               DB 0xff
0x00000000fff10003 ff               DB 0xff
0x00000000fff10004 ff               DB 0xff
0x00000000fff10005 ff               DB 0xff
0x00000000fff10006 ff               DB 0xff
0x00000000fff10007 ff08             DEC DWORD [EAX]
0x00000000fff10009 0000             ADD [EAX], AL
0x00000000fff1000b 0000             ADD [EAX], AL
0x00000000fff1000d 0000             ADD [EAX], AL
0x00000000fff1000f 0001             ADD [ECX], AL
0x00000000fff10011 0000             ADD [EAX], AL
0x00000000fff10013 0000             ADD [EAX], AL
0x00000000fff10015 0000             ADD [EAX], AL
0x00000000fff10017 0000             ADD [EAX], AL
0x00000000fff10019 0008             ADD [EAX], CL
0x00000000fff1001b 0138             ADD [EAX], EDI
0x00000000fff1001d 0000             ADD [EAX], AL
0x00000000fff1001f 0015000e000e     ADD [0xe000e00], DL
0x00000000fff10025 0000             ADD [EAX], AL
0x00000000fff10027 00f8             ADD AL, BH
0x00000000fff10029 73f3             JAE 0xfff1001e
0x00000000fff1002b f7fe             IDIV ESI
0x00000000fff1002d 07               POP ES
0x00000000fff1002e 0000             ADD [EAX], AL
0x00000000fff10030 0010             ADD [EAX], DL
0x00000000fff10032 b0f7             MOV AL, 0xf7
0x00000000fff10034 fe07             INC BYTE [EDI]
0x00000000fff10036 0000             ADD [EAX], AL
0x00000000fff10038 a8ed             TEST AL, 0xed
0x00000000fff1003a b3f7             MOV BL, 0xf7
0x00000000fff1003c fe07             INC BYTE [EDI]
0x00000000fff1003e 0000             ADD [EAX], AL

Process: Lavasoft.WCAss Pid: 3496 Address: 0x7fffff00000
Vad Tag: VadS Protection: PAGE_EXECUTE_READWRITE
Flags: CommitCharge: 1, PrivateMemory: 1, Protection: 6

0x000007fffff00000  00 00 00 00 00 00 00 00 78 0d 00 00 00 00 00 00   ........x.......
0x000007fffff00010  0e 00 00 00 49 c7 c2 00 00 00 00 48 b8 e0 19 14   ....I......H....
0x000007fffff00020  f9 fe 07 00 00 ff e0 49 c7 c2 01 00 00 00 48 b8   .......I......H.
0x000007fffff00030  e0 19 14 f9 fe 07 00 00 ff e0 49 c7 c2 02 00 00   ..........I.....

0x00000000fff00000 0000             ADD [EAX], AL
0x00000000fff00002 0000             ADD [EAX], AL
0x00000000fff00004 0000             ADD [EAX], AL
0x00000000fff00006 0000             ADD [EAX], AL
0x00000000fff00008 780d             JS 0xfff00017
0x00000000fff0000a 0000             ADD [EAX], AL
0x00000000fff0000c 0000             ADD [EAX], AL
0x00000000fff0000e 0000             ADD [EAX], AL
0x00000000fff00010 0e               PUSH CS
0x00000000fff00011 0000             ADD [EAX], AL
0x00000000fff00013 0049c7           ADD [ECX-0x39], CL
0x00000000fff00016 c20000           RET 0x0
0x00000000fff00019 0000             ADD [EAX], AL
0x00000000fff0001b 48               DEC EAX
0x00000000fff0001c b8e01914f9       MOV EAX, 0xf91419e0
0x00000000fff00021 fe07             INC BYTE [EDI]
0x00000000fff00023 0000             ADD [EAX], AL
0x00000000fff00025 ffe0             JMP EAX
0x00000000fff00027 49               DEC ECX
0x00000000fff00028 c7c201000000     MOV EDX, 0x1
0x00000000fff0002e 48               DEC EAX
0x00000000fff0002f b8e01914f9       MOV EAX, 0xf91419e0
0x00000000fff00034 fe07             INC BYTE [EDI]
0x00000000fff00036 0000             ADD [EAX], AL
0x00000000fff00038 ffe0             JMP EAX
0x00000000fff0003a 49               DEC ECX
0x00000000fff0003b c7               DB 0xc7
0x00000000fff0003c c20200           RET 0x2
0x00000000fff0003f 00               DB 0x0

Process: WebCompanion.e Pid: 3856 Address: 0x1f0000
Vad Tag: VadS Protection: PAGE_EXECUTE_READWRITE
Flags: CommitCharge: 1, PrivateMemory: 1, Protection: 6

0x00000000001f0000  2e 7f f0 8b 0a 71 00 01 ee ff ee ff 00 00 00 00   .....q..........
0x00000000001f0010  a8 00 1f 00 a8 00 1f 00 00 00 1f 00 00 00 1f 00   ................
0x00000000001f0020  40 00 00 00 88 05 1f 00 00 00 23 00 3f 00 00 00   @.........#.?...
0x00000000001f0030  01 00 00 00 00 00 00 00 f0 0f 1f 00 f0 0f 1f 00   ................

0x00000000001f0000 2e7ff0           JG 0x1efff3
0x00000000001f0003 8b0a             MOV ECX, [EDX]
0x00000000001f0005 7100             JNO 0x1f0007
0x00000000001f0007 01ee             ADD ESI, EBP
0x00000000001f0009 ff               DB 0xff
0x00000000001f000a ee               OUT DX, AL
0x00000000001f000b ff00             INC DWORD [EAX]
0x00000000001f000d 0000             ADD [EAX], AL
0x00000000001f000f 00a8001f00a8     ADD [EAX-0x57ffe100], CH
0x00000000001f0015 001f             ADD [EDI], BL
0x00000000001f0017 0000             ADD [EAX], AL
0x00000000001f0019 001f             ADD [EDI], BL
0x00000000001f001b 0000             ADD [EAX], AL
0x00000000001f001d 001f             ADD [EDI], BL
0x00000000001f001f 004000           ADD [EAX+0x0], AL
0x00000000001f0022 0000             ADD [EAX], AL
0x00000000001f0024 88051f000000     MOV [0x1f], AL
0x00000000001f002a 2300             AND EAX, [EAX]
0x00000000001f002c 3f               AAS
0x00000000001f002d 0000             ADD [EAX], AL
0x00000000001f002f 0001             ADD [ECX], AL
0x00000000001f0031 0000             ADD [EAX], AL
0x00000000001f0033 0000             ADD [EAX], AL
0x00000000001f0035 0000             ADD [EAX], AL
0x00000000001f0037 00f0             ADD AL, DH
0x00000000001f0039 0f1f00           NOP DWORD [EAX]
0x00000000001f003c f00f1f00         NOP DWORD [EAX]

Process: WebCompanion.e Pid: 3856 Address: 0x7d0000
Vad Tag: VadS Protection: PAGE_EXECUTE_READWRITE
Flags: CommitCharge: 1, PrivateMemory: 1, Protection: 6

0x00000000007d0000  01 a0 33 b8 02 5c 00 01 ee ff ee ff 00 00 00 00   ..3..\..........
0x00000000007d0010  a8 00 7d 00 a8 00 7d 00 00 00 7d 00 00 00 7d 00   ..}...}...}...}.
0x00000000007d0020  40 00 00 00 88 05 7d 00 00 00 81 00 3f 00 00 00   @.....}.....?...
0x00000000007d0030  01 00 00 00 00 00 00 00 f0 0f 7d 00 f0 0f 7d 00   ..........}...}.

0x00000000007d0000 01a033b8025c     ADD [EAX+0x5c02b833], ESP
0x00000000007d0006 0001             ADD [ECX], AL
0x00000000007d0008 ee               OUT DX, AL
0x00000000007d0009 ff               DB 0xff
0x00000000007d000a ee               OUT DX, AL
0x00000000007d000b ff00             INC DWORD [EAX]
0x00000000007d000d 0000             ADD [EAX], AL
0x00000000007d000f 00a8007d00a8     ADD [EAX-0x57ff8300], CH
0x00000000007d0015 007d00           ADD [EBP+0x0], BH
0x00000000007d0018 0000             ADD [EAX], AL
0x00000000007d001a 7d00             JGE 0x7d001c
0x00000000007d001c 0000             ADD [EAX], AL
0x00000000007d001e 7d00             JGE 0x7d0020
0x00000000007d0020 40               INC EAX
0x00000000007d0021 0000             ADD [EAX], AL
0x00000000007d0023 0088057d0000     ADD [EAX+0x7d05], CL
0x00000000007d0029 0081003f0000     ADD [ECX+0x3f00], AL
0x00000000007d002f 0001             ADD [ECX], AL
0x00000000007d0031 0000             ADD [EAX], AL
0x00000000007d0033 0000             ADD [EAX], AL
0x00000000007d0035 0000             ADD [EAX], AL
0x00000000007d0037 00f0             ADD AL, DH
0x00000000007d0039 0f               DB 0xf
0x00000000007d003a 7d00             JGE 0x7d003c
0x00000000007d003c f0               DB 0xf0
0x00000000007d003d 0f               DB 0xf
0x00000000007d003e 7d00             JGE 0x7d0040

Process: WebCompanion.e Pid: 3856 Address: 0x4990000
Vad Tag: VadS Protection: PAGE_EXECUTE_READWRITE
Flags: CommitCharge: 27, PrivateMemory: 1, Protection: 6

0x0000000004990000  13 e6 17 8b 1b 43 00 01 ee ff ee ff 00 00 00 00   .....C..........
0x0000000004990010  a8 00 99 04 a8 00 99 04 00 00 99 04 00 00 99 04   ................
0x0000000004990020  40 00 00 00 88 05 99 04 00 00 9d 04 25 00 00 00   @...........%...
0x0000000004990030  01 00 00 00 00 00 00 00 f0 af 9a 04 f0 af 9a 04   ................

0x0000000004990000 13e6             ADC ESP, ESI
0x0000000004990002 17               POP SS
0x0000000004990003 8b1b             MOV EBX, [EBX]
0x0000000004990005 43               INC EBX
0x0000000004990006 0001             ADD [ECX], AL
0x0000000004990008 ee               OUT DX, AL
0x0000000004990009 ff               DB 0xff
0x000000000499000a ee               OUT DX, AL
0x000000000499000b ff00             INC DWORD [EAX]
0x000000000499000d 0000             ADD [EAX], AL
0x000000000499000f 00a8009904a8     ADD [EAX-0x57fb6700], CH
0x0000000004990015 009904000099     ADD [ECX-0x66fffffc], BL
0x000000000499001b 0400             ADD AL, 0x0
0x000000000499001d 009904400000     ADD [ECX+0x4004], BL
0x0000000004990023 008805990400     ADD [EAX+0x49905], CL
0x0000000004990029 009d04250000     ADD [EBP+0x2504], BL
0x000000000499002f 0001             ADD [ECX], AL
0x0000000004990031 0000             ADD [EAX], AL
0x0000000004990033 0000             ADD [EAX], AL
0x0000000004990035 0000             ADD [EAX], AL
0x0000000004990037 00f0             ADD AL, DH
0x0000000004990039 af               SCASD
0x000000000499003a 9a               DB 0x9a
0x000000000499003b 04f0             ADD AL, 0xf0
0x000000000499003d af               SCASD
0x000000000499003e 9a               DB 0x9a
0x000000000499003f 04               DB 0x4

